Certificate Request:
    Data:
        Version: 0 (0x0)
        Subject: CN=localhost
        Subject Public Key Info:
            Public Key Algorithm: rsaEncryption
                Public-Key: (4096 bit)
                Modulus:
                    00:dc:1f:60:ba:9b:fc:c8:58:be:1e:30:70:f4:71:
                    c6:cc:b7:65:ee:02:1a:24:18:c1:20:fd:ca:13:10:
                    f8:f2:6e:49:49:95:9a:97:0e:f8:64:45:6c:e8:bf:
                    33:c0:57:69:1c:47:44:de:6f:8b:51:25:1f:ac:08:
                    20:ff:a6:c4:2b:e7:4c:88:e6:79:89:3b:6c:ee:0c:
                    83:6f:a3:d6:cb:b9:27:be:ab:d2:5b:f4:3d:30:2a:
                    21:2d:78:33:ae:ef:96:62:90:f2:9c:43:fd:ae:e2:
                    59:e8:8f:de:c8:fb:4f:e5:10:f8:ea:1e:30:dd:b7:
                    70:7e:49:0f:4b:a5:d7:2e:79:24:02:e8:c5:55:b7:
                    49:15:b6:b7:2d:75:17:66:31:63:af:43:f7:22:c9:
                    28:2d:17:08:67:07:33:99:bf:e3:a9:c4:6f:94:02:
                    d8:6c:a0:d4:aa:88:43:b3:f6:58:48:bf:9f:31:42:
                    bf:fa:03:f7:5a:95:17:97:84:f3:60:29:21:ad:14:
                    cb:1f:b0:07:b4:1f:3a:ff:aa:a2:aa:a8:84:8a:64:
                    e9:7f:e1:26:5a:da:e6:ef:05:2d:92:f4:a5:bb:33:
                    64:60:50:ce:9d:03:7c:76:80:46:d0:f0:59:8d:3c:
                    24:f0:28:eb:a1:65:00:c9:d8:4e:9b:ff:7f:db:35:
                    3d:7b:d3:41:51:1e:6f:3b:8e:0b:5d:44:68:f3:37:
                    9e:ee:21:65:7a:35:c8:92:83:f5:d8:ea:a0:47:86:
                    a4:b6:4e:b4:4c:5d:3e:3b:f1:29:fe:12:c7:d2:a7:
                    a2:78:bc:64:a7:17:a8:9e:cc:b5:29:2d:43:9c:8e:
                    a4:af:37:a3:d6:5c:60:20:5e:51:33:37:2f:8c:06:
                    fc:99:39:58:d5:82:67:fa:bc:7d:6d:07:0f:fe:50:
                    ef:7e:a4:60:c8:a4:cc:b5:37:f7:00:f5:35:41:c4:
                    4d:65:4f:87:20:ac:0d:1a:73:ad:2f:67:19:a0:65:
                    47:fc:fb:1d:5f:c8:ea:f7:23:2d:21:6f:85:f2:d1:
                    7b:64:da:64:7b:7c:fc:92:41:57:40:7d:c4:7b:38:
                    fa:a4:0f:30:26:1d:48:fe:e5:7b:ed:a2:dd:58:35:
                    17:5a:04:11:88:1f:ae:89:3f:29:91:19:bc:50:85:
                    3c:8e:ae:77:78:a1:dd:dd:31:56:5f:8d:f0:d4:a3:
                    fd:fa:5b:1b:0b:66:03:dc:75:92:02:0b:4a:a8:a6:
                    d2:21:b0:64:45:d0:72:ae:83:4a:33:88:7d:0c:0d:
                    d3:70:92:1d:ec:0d:8f:dc:bd:b6:0c:ed:ac:0b:a4:
                    33:b3:27:6d:0d:1f:18:6f:c5:f4:61:33:2a:65:d9:
                    e3:72:7d
                Exponent: 65537 (0x10001)
        Attributes:
            a0:00
    Signature Algorithm: sha256WithRSAEncryption
         25:31:85:82:1c:a3:dc:bb:e3:7a:64:a8:c6:d7:f9:86:dd:34:
         55:dc:eb:18:e6:7c:85:fe:3c:dc:df:c6:26:5c:af:f9:41:bc:
         fd:79:d2:e8:2b:35:35:0e:98:86:66:2a:5f:51:69:db:19:4e:
         48:d2:ae:1c:8c:86:2a:c7:00:f7:ee:11:8c:c9:36:de:a8:6a:
         e2:3e:a5:a3:b1:78:ac:9d:25:73:ea:0e:ea:05:0b:a1:48:e2:
         f3:05:42:3e:5b:4b:bf:45:ae:27:f0:fd:29:26:a4:48:2a:08:
         d0:17:8d:0f:c4:07:93:51:fd:6e:39:ff:68:ef:7e:72:18:2a:
         3f:fe:48:82:49:eb:6f:66:9f:b3:a2:6f:32:7b:3f:64:51:c4:
         41:20:29:c3:06:e1:80:f7:0e:6a:35:63:37:f0:7b:7a:c9:cd:
         0c:eb:69:32:9e:c2:0a:73:bc:52:20:9a:18:de:62:72:15:82:
         15:cb:5f:ab:df:14:05:83:b1:06:71:18:2f:c3:0f:24:e5:f7:
         a5:4b:4c:a2:28:59:8a:cf:dd:e5:68:02:f9:a6:84:8b:24:b9:
         27:b9:6f:d8:9b:82:d4:aa:ef:0d:41:be:4d:95:a8:f0:3f:f7:
         5d:81:32:75:3b:81:8f:6e:5d:e0:55:6a:13:4a:9f:3f:c1:f1:
         9f:ed:45:3b:8d:07:bd:02:ea:fc:a4:b9:8b:2f:f2:87:3f:f5:
         61:ec:86:b1:5a:40:40:83:7e:b3:d6:ed:44:1e:e3:ba:2d:e0:
         68:13:d1:9c:0c:b8:0a:26:65:f4:46:fe:9a:38:d2:8c:ec:2b:
         a1:0d:24:5f:9c:68:12:a8:4e:40:9b:37:33:44:64:3c:71:72:
         0f:06:40:de:11:ab:7e:0b:83:a3:30:2f:f8:a3:7e:76:bd:f0:
         be:47:e0:b3:78:a0:3e:10:17:d8:4c:51:9b:f5:29:8c:02:f6:
         6e:d0:e5:de:41:b4:42:70:74:7d:c9:a8:6a:77:59:d5:e1:3b:
         f8:fa:e0:b7:5d:4c:ce:dc:f6:87:2a:89:4a:27:ec:91:17:b2:
         d3:57:50:39:6e:be:4c:18:e2:43:7c:5e:10:2e:29:86:68:f6:
         da:00:c5:29:a3:a9:2e:dd:b5:63:2d:f3:0d:0b:f0:58:c2:3a:
         63:bd:6b:05:42:e3:a9:37:ea:ef:00:78:0b:52:03:c9:8e:4a:
         ad:25:dd:0a:eb:63:a4:d0:a1:23:3e:ca:68:1f:bb:b9:43:67:
         03:b7:33:98:df:96:ac:c5:b3:27:b6:3a:3b:94:7d:00:02:4f:
         58:d5:a8:19:34:12:8b:a5:70:d0:e1:47:58:4e:55:73:32:89:
         03:de:71:83:6f:74:50:8f
-----BEGIN CERTIFICATE REQUEST-----
MIIEWTCCAkECAQAwFDESMBAGA1UEAwwJbG9jYWxob3N0MIICIjANBgkqhkiG9w0B
AQEFAAOCAg8AMIICCgKCAgEA3B9gupv8yFi+HjBw9HHGzLdl7gIaJBjBIP3KExD4
8m5JSZWalw74ZEVs6L8zwFdpHEdE3m+LUSUfrAgg/6bEK+dMiOZ5iTts7gyDb6PW
y7knvqvSW/Q9MCohLXgzru+WYpDynEP9ruJZ6I/eyPtP5RD46h4w3bdwfkkPS6XX
LnkkAujFVbdJFba3LXUXZjFjr0P3IskoLRcIZwczmb/jqcRvlALYbKDUqohDs/ZY
SL+fMUK/+gP3WpUXl4TzYCkhrRTLH7AHtB86/6qiqqiEimTpf+EmWtrm7wUtkvSl
uzNkYFDOnQN8doBG0PBZjTwk8CjroWUAydhOm/9/2zU9e9NBUR5vO44LXURo8zee
7iFlejXIkoP12OqgR4aktk60TF0+O/Ep/hLH0qeieLxkpxeonsy1KS1DnI6krzej
1lxgIF5RMzcvjAb8mTlY1YJn+rx9bQcP/lDvfqRgyKTMtTf3APU1QcRNZU+HIKwN
GnOtL2cZoGVH/PsdX8jq9yMtIW+F8tF7ZNpke3z8kkFXQH3Eezj6pA8wJh1I/uV7
7aLdWDUXWgQRiB+uiT8pkRm8UIU8jq53eKHd3TFWX43w1KP9+lsbC2YD3HWSAgtK
qKbSIbBkRdByroNKM4h9DA3TcJId7A2P3L22DO2sC6QzsydtDR8Yb8X0YTMqZdnj
cn0CAwEAAaAAMA0GCSqGSIb3DQEBCwUAA4ICAQAlMYWCHKPcu+N6ZKjG1/mG3TRV
3OsY5nyF/jzc38YmXK/5Qbz9edLoKzU1DpiGZipfUWnbGU5I0q4cjIYqxwD37hGM
yTbeqGriPqWjsXisnSVz6g7qBQuhSOLzBUI+W0u/Ra4n8P0pJqRIKgjQF40PxAeT
Uf1uOf9o735yGCo//kiCSetvZp+zom8yez9kUcRBICnDBuGA9w5qNWM38Ht6yc0M
62kynsIKc7xSIJoY3mJyFYIVy1+r3xQFg7EGcRgvww8k5felS0yiKFmKz93laAL5
poSLJLknuW/Ym4LUqu8NQb5NlajwP/ddgTJ1O4GPbl3gVWoTSp8/wfGf7UU7jQe9
Aur8pLmLL/KHP/Vh7IaxWkBAg36z1u1EHuO6LeBoE9GcDLgKJmX0Rv6aONKM7Cuh
DSRfnGgSqE5AmzczRGQ8cXIPBkDeEat+C4OjMC/4o352vfC+R+CzeKA+EBfYTFGb
9SmMAvZu0OXeQbRCcHR9yahqd1nV4Tv4+uC3XUzO3PaHKolKJ+yRF7LTV1A5br5M
GOJDfF4QLimGaPbaAMUpo6ku3bVjLfMNC/BYwjpjvWsFQuOpN+rvAHgLUgPJjkqt
Jd0K62Ok0KEjPspoH7u5Q2cDtzOY35asxbMntjo7lH0AAk9Y1agZNBKLpXDQ4UdY
TlVzMokD3nGDb3RQjw==
-----END CERTIFICATE REQUEST-----
